target datalayout = "e-m:e-p270:32:32-p271:32:32-p272:64:64-i64:64-i128:128-f80:128-n8:16:32:64-S128"
target triple = "x86_64-pc-linux-gnu"

%struct.OSSL_TIME = type { i64 }

@fake_now_lock = internal global ptr null, align 8
@fake_now = internal global %struct.OSSL_TIME zeroinitializer, align 8
@start_time = internal global %struct.OSSL_TIME zeroinitializer, align 8

; Function Attrs: inlinehint nounwind uwtable
define internal i64 @ossl_ticks2time(i64 noundef %0) #5 {
  %2 = alloca %struct.OSSL_TIME, align 8
  %3 = alloca i64, align 8
  store i64 %0, ptr %3, align 8, !tbaa !62
  %4 = load i64, ptr %3, align 8, !tbaa !62
  %5 = getelementptr inbounds nuw %struct.OSSL_TIME, ptr %2, i32 0, i32 0
  store i64 %4, ptr %5, align 8, !tbaa !72
  %6 = getelementptr inbounds nuw %struct.OSSL_TIME, ptr %2, i32 0, i32 0
  %7 = load i64, ptr %6, align 8
  ret i64 %7
}

; Function Attrs: inlinehint nounwind uwtable
define internal i64 @safe_sub_time(i64 noundef %0, i64 noundef %1, ptr noundef %2) #5 {
  %4 = alloca i64, align 8
  %5 = alloca i64, align 8
  %6 = alloca ptr, align 8
  store i64 %0, ptr %4, align 8, !tbaa !62
  store i64 %1, ptr %5, align 8, !tbaa !62
  store ptr %2, ptr %6, align 8, !tbaa !127
  %7 = load i64, ptr %5, align 8, !tbaa !62
  %8 = load i64, ptr %4, align 8, !tbaa !62
  %9 = icmp ugt i64 %7, %8
  br i1 %9, label %10, label %14

10:                                               ; preds = %3
  %11 = load ptr, ptr %6, align 8, !tbaa !127
  %12 = load i32, ptr %11, align 4, !tbaa !13
  %13 = or i32 %12, 1
  store i32 %13, ptr %11, align 4, !tbaa !13
  br label %14

14:                                               ; preds = %10, %3
  %15 = load i64, ptr %4, align 8, !tbaa !62
  %16 = load i64, ptr %5, align 8, !tbaa !62
  %17 = sub i64 %15, %16
  ret i64 %17
}

; Function Attrs: inlinehint nounwind uwtable
define internal i64 @ossl_time_zero() #5 {
  %1 = alloca %struct.OSSL_TIME, align 8
  %2 = call i64 @ossl_ticks2time(i64 noundef 0)
  %3 = getelementptr inbounds nuw %struct.OSSL_TIME, ptr %1, i32 0, i32 0
  store i64 %2, ptr %3, align 8
  %4 = getelementptr inbounds nuw %struct.OSSL_TIME, ptr %1, i32 0, i32 0
  %5 = load i64, ptr %4, align 8
  ret i64 %5
}

; Function Attrs: inlinehint nounwind uwtable
define internal i64 @ossl_time2ticks(i64 %0) #5 {
  %2 = alloca %struct.OSSL_TIME, align 8
  %3 = getelementptr inbounds nuw %struct.OSSL_TIME, ptr %2, i32 0, i32 0
  store i64 %0, ptr %3, align 8
  %4 = getelementptr inbounds nuw %struct.OSSL_TIME, ptr %2, i32 0, i32 0
  %5 = load i64, ptr %4, align 8, !tbaa !72
  ret i64 %5
}

; Function Attrs: inlinehint nounwind uwtable
define internal i64 @ossl_time_subtract(i64 %0, i64 %1) #5 {
  %3 = alloca %struct.OSSL_TIME, align 8
  %4 = alloca %struct.OSSL_TIME, align 8
  %5 = alloca %struct.OSSL_TIME, align 8
  %6 = alloca %struct.OSSL_TIME, align 8
  %7 = alloca i32, align 4
  %8 = getelementptr inbounds nuw %struct.OSSL_TIME, ptr %4, i32 0, i32 0
  store i64 %0, ptr %8, align 8
  %9 = getelementptr inbounds nuw %struct.OSSL_TIME, ptr %5, i32 0, i32 0
  store i64 %1, ptr %9, align 8
  call void @llvm.lifetime.start.p0(i64 8, ptr %6) #8
  call void @llvm.lifetime.start.p0(i64 4, ptr %7) #8
  store i32 0, ptr %7, align 4, !tbaa !13
  %10 = getelementptr inbounds nuw %struct.OSSL_TIME, ptr %4, i32 0, i32 0
  %11 = load i64, ptr %10, align 8, !tbaa !72
  %12 = getelementptr inbounds nuw %struct.OSSL_TIME, ptr %5, i32 0, i32 0
  %13 = load i64, ptr %12, align 8, !tbaa !72
  %14 = call i64 @safe_sub_time(i64 noundef %11, i64 noundef %13, ptr noundef %7)
  %15 = getelementptr inbounds nuw %struct.OSSL_TIME, ptr %6, i32 0, i32 0
  store i64 %14, ptr %15, align 8, !tbaa !72
  %16 = load i32, ptr %7, align 4, !tbaa !13
  %17 = icmp ne i32 %16, 0
  br i1 %17, label %18, label %21

18:                                               ; preds = %2
  %19 = call i64 @ossl_time_zero()
  %20 = getelementptr inbounds nuw %struct.OSSL_TIME, ptr %3, i32 0, i32 0
  store i64 %19, ptr %20, align 8
  br label %22

21:                                               ; preds = %2
  call void @llvm.memcpy.p0.p0.i64(ptr align 8 %3, ptr align 8 %6, i64 8, i1 false), !tbaa.struct !71
  br label %22

22:                                               ; preds = %21, %18
  call void @llvm.lifetime.end.p0(i64 4, ptr %7) #8
  call void @llvm.lifetime.end.p0(i64 8, ptr %6) #8
  %23 = getelementptr inbounds nuw %struct.OSSL_TIME, ptr %3, i32 0, i32 0
  %24 = load i64, ptr %23, align 8
  ret i64 %24
}

; Function Attrs: nounwind uwtable
define internal i64 @qtest_get_time() #0 {
  %1 = alloca %struct.OSSL_TIME, align 8
  %2 = alloca %struct.OSSL_TIME, align 8
  %3 = alloca i32, align 4
  call void @llvm.lifetime.start.p0(i64 8, ptr %2) #8
  %4 = load ptr, ptr @fake_now_lock, align 8, !tbaa !56
  %5 = call i32 @CRYPTO_THREAD_read_lock(ptr noundef %4)
  %6 = icmp ne i32 %5, 0
  br i1 %6, label %10, label %7

7:                                                ; preds = %0
  %8 = call i64 @ossl_time_zero()
  %9 = getelementptr inbounds nuw %struct.OSSL_TIME, ptr %1, i32 0, i32 0
  store i64 %8, ptr %9, align 8
  store i32 1, ptr %3, align 4
  br label %13

10:                                               ; preds = %0
  call void @llvm.memcpy.p0.p0.i64(ptr align 8 %2, ptr align 8 @fake_now, i64 8, i1 false), !tbaa.struct !71
  %11 = load ptr, ptr @fake_now_lock, align 8, !tbaa !56
  %12 = call i32 @CRYPTO_THREAD_unlock(ptr noundef %11)
  call void @llvm.memcpy.p0.p0.i64(ptr align 8 %1, ptr align 8 %2, i64 8, i1 false), !tbaa.struct !71
  store i32 1, ptr %3, align 4
  br label %13

13:                                               ; preds = %10, %7
  call void @llvm.lifetime.end.p0(i64 8, ptr %2) #8
  %14 = getelementptr inbounds nuw %struct.OSSL_TIME, ptr %1, i32 0, i32 0
  %15 = load i64, ptr %14, align 8
  ret i64 %15
}

; Function Attrs: nounwind uwtable
define dso_local i64 @qtest_get_stopwatch_time() #0 {
  %1 = alloca %struct.OSSL_TIME, align 8
  %2 = alloca %struct.OSSL_TIME, align 8
  %3 = call i64 @qtest_get_time()
  %4 = getelementptr inbounds nuw %struct.OSSL_TIME, ptr %2, i32 0, i32 0
  store i64 %3, ptr %4, align 8
  %5 = getelementptr inbounds nuw %struct.OSSL_TIME, ptr %2, i32 0, i32 0
  %6 = load i64, ptr %5, align 8
  %7 = load i64, ptr @start_time, align 8
  %8 = call i64 @ossl_time_subtract(i64 %6, i64 %7)
  %9 = getelementptr inbounds nuw %struct.OSSL_TIME, ptr %1, i32 0, i32 0
  store i64 %8, ptr %9, align 8
  %10 = getelementptr inbounds nuw %struct.OSSL_TIME, ptr %1, i32 0, i32 0
  %11 = load i64, ptr %10, align 8
  %12 = call i64 @ossl_time2ticks(i64 %11)
  %13 = udiv i64 %12, 1000000
  ret i64 %13
}