; Function Attrs: nounwind uwtable
define dso_local range(i64 0, 18446744073710) i64 @qtest_get_stopwatch_time() local_unnamed_addr #0 {
  %1 = load ptr, ptr @fake_now_lock, align 8, !tbaa !42
  %2 = tail call i32 @CRYPTO_THREAD_read_lock(ptr noundef %1) #10
  %.not.i = icmp eq i32 %2, 0
  br i1 %.not.i, label %qtest_get_time.exit, label %3

3:                                                ; preds = %0
  %.sroa.0.0.copyload.i = load i64, ptr @fake_now.0, align 8, !tbaa !46
  %4 = load ptr, ptr @fake_now_lock, align 8, !tbaa !42
  %5 = tail call i32 @CRYPTO_THREAD_unlock(ptr noundef %4) #10
  br label %qtest_get_time.exit

qtest_get_time.exit:                              ; preds = %0, %3
  %.sroa.02.0.i = phi i64 [ %.sroa.0.0.copyload.i, %3 ], [ 0, %0 ]
  %6 = load i64, ptr @start_time.0, align 8
  %..i = tail call i64 @llvm.usub.sat.i64(i64 %.sroa.02.0.i, i64 %6)
  %7 = udiv i64 %..i, 1000000
  ret i64 %7
}